; Function Attrs: nounwind uwtable
define ptr @l_Lean_Json_opt___at___private_Lean_Data_Lsp_Capabilities_0__Lean_Lsp_toJsonServerCapabilities____x40_Lean_Data_Lsp_Capabilities___hyg_1745____spec__4(ptr noundef %0, ptr noundef %1) local_unnamed_addr #0 {
  %3 = ptrtoint ptr %1 to i64
  %4 = and i64 %3, 1
  %.not.i20 = icmp eq i64 %4, 0
  br i1 %.not.i20, label %8, label %5

5:                                                ; preds = %2
  %6 = lshr i64 %3, 1
  %7 = trunc i64 %6 to i32
  br label %lean_obj_tag.exit

8:                                                ; preds = %2
  %9 = getelementptr i8, ptr %1, i64 4
  %.val.i = load i32, ptr %9, align 4
  %10 = lshr i32 %.val.i, 24
  br label %lean_obj_tag.exit

lean_obj_tag.exit:                                ; preds = %5, %8
  %.0.i = phi i32 [ %7, %5 ], [ %10, %8 ]
  %11 = icmp eq i32 %.0.i, 0
  br i1 %11, label %12, label %22

12:                                               ; preds = %lean_obj_tag.exit
  %13 = ptrtoint ptr %0 to i64
  %14 = and i64 %13, 1
  %.not25 = icmp eq i64 %14, 0
  br i1 %.not25, label %15, label %lean_dec.exit17

15:                                               ; preds = %12
  %16 = load i32, ptr %0, align 4, !tbaa !8
  %17 = icmp sgt i32 %16, 1
  br i1 %17, label %18, label %20, !prof !13

18:                                               ; preds = %15
  %19 = add nsw i32 %16, -1
  store i32 %19, ptr %0, align 4, !tbaa !8
  br label %lean_dec.exit17

20:                                               ; preds = %15
  %.not.i = icmp eq i32 %16, 0
  br i1 %.not.i, label %lean_dec.exit17, label %21

21:                                               ; preds = %20
  tail call void @lean_dec_ref_cold(ptr noundef nonnull %0) #6
  br label %lean_dec.exit17

22:                                               ; preds = %lean_obj_tag.exit
  %23 = getelementptr inbounds nuw i8, ptr %1, i64 8
  %24 = load ptr, ptr %23, align 8, !tbaa !4
  %25 = ptrtoint ptr %24 to i64
  %26 = and i64 %25, 1
  %.not = icmp eq i64 %26, 0
  br i1 %.not, label %27, label %lean_inc.exit

27:                                               ; preds = %22
  %.val.i21 = load i32, ptr %24, align 4, !tbaa !8
  %28 = icmp sgt i32 %.val.i21, 0
  br i1 %28, label %29, label %31, !prof !13

29:                                               ; preds = %27
  %30 = add nuw i32 %.val.i21, 1
  store i32 %30, ptr %24, align 4, !tbaa !8
  br label %lean_inc.exit

31:                                               ; preds = %27
  %.not.i22 = icmp eq i32 %.val.i21, 0
  br i1 %.not.i22, label %lean_inc.exit, label %32

32:                                               ; preds = %31
  tail call void @lean_inc_ref_cold(ptr noundef nonnull %24) #6
  br label %lean_inc.exit

lean_inc.exit:                                    ; preds = %32, %31, %29, %22
  br i1 %.not.i20, label %33, label %lean_dec.exit

33:                                               ; preds = %lean_inc.exit
  %34 = load i32, ptr %1, align 4, !tbaa !8
  %35 = icmp sgt i32 %34, 1
  br i1 %35, label %36, label %38, !prof !13

36:                                               ; preds = %33
  %37 = add nsw i32 %34, -1
  store i32 %37, ptr %1, align 4, !tbaa !8
  br label %lean_dec.exit

38:                                               ; preds = %33
  %.not.i18 = icmp eq i32 %34, 0
  br i1 %.not.i18, label %lean_dec.exit, label %39

39:                                               ; preds = %38
  tail call void @lean_dec_ref_cold(ptr noundef nonnull %1) #6
  br label %lean_dec.exit

lean_dec.exit:                                    ; preds = %39, %38, %36, %lean_inc.exit
  %40 = tail call ptr @l___private_Lean_Data_Lsp_LanguageFeatures_0__Lean_Lsp_toJsonSemanticTokensOptions____x40_Lean_Data_Lsp_LanguageFeatures___hyg_10222_(ptr noundef %24) #6
  tail call void @lean_inc_heartbeat() #6
  %41 = tail call noalias ptr @mi_malloc_small(i64 noundef 24) #6
  %42 = icmp eq ptr %41, null
  br i1 %42, label %43, label %lean_alloc_ctor.exit

43:                                               ; preds = %lean_dec.exit
  tail call void @lean_internal_panic_out_of_memory() #7
  unreachable

lean_alloc_ctor.exit:                             ; preds = %lean_dec.exit
  %44 = getelementptr inbounds nuw i8, ptr %41, i64 4
  store i32 1, ptr %41, align 4, !tbaa !8
  store i32 131096, ptr %44, align 4
  %45 = getelementptr inbounds nuw i8, ptr %41, i64 8
  store ptr %0, ptr %45, align 8, !tbaa !4
  %46 = getelementptr inbounds nuw i8, ptr %41, i64 16
  store ptr %40, ptr %46, align 8, !tbaa !4
  tail call void @lean_inc_heartbeat() #6
  %47 = tail call noalias ptr @mi_malloc_small(i64 noundef 24) #6
  %48 = icmp eq ptr %47, null
  br i1 %48, label %49, label %lean_alloc_ctor.exit23

49:                                               ; preds = %lean_alloc_ctor.exit
  tail call void @lean_internal_panic_out_of_memory() #7
  unreachable

lean_alloc_ctor.exit23:                           ; preds = %lean_alloc_ctor.exit
  %50 = getelementptr inbounds nuw i8, ptr %47, i64 4
  store i32 1, ptr %47, align 4, !tbaa !8
  store i32 16908312, ptr %50, align 4
  %51 = getelementptr inbounds nuw i8, ptr %47, i64 8
  store ptr %41, ptr %51, align 8, !tbaa !4
  %52 = getelementptr inbounds nuw i8, ptr %47, i64 16
  store ptr inttoptr (i64 1 to ptr), ptr %52, align 8, !tbaa !4
  br label %lean_dec.exit17

lean_dec.exit17:                                  ; preds = %12, %18, %20, %21, %lean_alloc_ctor.exit23
  %.0 = phi ptr [ %47, %lean_alloc_ctor.exit23 ], [ inttoptr (i64 1 to ptr), %21 ], [ inttoptr (i64 1 to ptr), %20 ], [ inttoptr (i64 1 to ptr), %18 ], [ inttoptr (i64 1 to ptr), %12 ]
  ret ptr %.0
}